target datalayout = "e-m:e-p270:32:32-p271:32:32-p272:64:64-i64:64-i128:128-f80:128-n8:16:32:64-S128"
target triple = "x86_64-pc-linux-gnu"

%struct.Kit_DsdNtk_t_ = type { i16, i16, i16, i16, ptr, ptr, ptr }
%struct.Kit_DsdObj_t_ = type { i32, [0 x i16] }

; Function Attrs: inlinehint nounwind uwtable
define internal i32 @Kit_DsdObjOffset(i32 noundef %0) #4 {
  %2 = alloca i32, align 4
  store i32 %0, ptr %2, align 4, !tbaa !3
  %3 = load i32, ptr %2, align 4, !tbaa !3
  %4 = ashr i32 %3, 1
  %5 = load i32, ptr %2, align 4, !tbaa !3
  %6 = and i32 %5, 1
  %7 = icmp sgt i32 %6, 0
  %8 = zext i1 %7 to i32
  %9 = add nsw i32 %4, %8
  ret i32 %9
}

; Function Attrs: inlinehint nounwind uwtable
define internal ptr @Kit_DsdNtkObj(ptr noundef %0, i32 noundef %1) #4 {
  %3 = alloca ptr, align 8
  %4 = alloca i32, align 4
  store ptr %0, ptr %3, align 8, !tbaa !37
  store i32 %1, ptr %4, align 4, !tbaa !3
  %5 = load i32, ptr %4, align 4, !tbaa !3
  %6 = load ptr, ptr %3, align 8, !tbaa !37
  %7 = getelementptr inbounds nuw %struct.Kit_DsdNtk_t_, ptr %6, i32 0, i32 0
  %8 = load i16, ptr %7, align 8, !tbaa !41
  %9 = zext i16 %8 to i32
  %10 = icmp slt i32 %5, %9
  br i1 %10, label %11, label %12

11:                                               ; preds = %2
  br label %25

12:                                               ; preds = %2
  %13 = load ptr, ptr %3, align 8, !tbaa !37
  %14 = getelementptr inbounds nuw %struct.Kit_DsdNtk_t_, ptr %13, i32 0, i32 6
  %15 = load ptr, ptr %14, align 8, !tbaa !47
  %16 = load i32, ptr %4, align 4, !tbaa !3
  %17 = load ptr, ptr %3, align 8, !tbaa !37
  %18 = getelementptr inbounds nuw %struct.Kit_DsdNtk_t_, ptr %17, i32 0, i32 0
  %19 = load i16, ptr %18, align 8, !tbaa !41
  %20 = zext i16 %19 to i32
  %21 = sub nsw i32 %16, %20
  %22 = sext i32 %21 to i64
  %23 = getelementptr inbounds ptr, ptr %15, i64 %22
  %24 = load ptr, ptr %23, align 8, !tbaa !39
  br label %25

25:                                               ; preds = %12, %11
  %26 = phi ptr [ null, %11 ], [ %24, %12 ]
  ret ptr %26
}

; Function Attrs: inlinehint nounwind uwtable
define internal i32 @Abc_Lit2Var(i32 noundef %0) #4 {
  %2 = alloca i32, align 4
  store i32 %0, ptr %2, align 4, !tbaa !3
  %3 = load i32, ptr %2, align 4, !tbaa !3
  %4 = ashr i32 %3, 1
  ret i32 %4
}

; Function Attrs: inlinehint nounwind uwtable
define internal i32 @Kit_TruthWordNum(i32 noundef %0) #4 {
  %2 = alloca i32, align 4
  store i32 %0, ptr %2, align 4, !tbaa !3
  %3 = load i32, ptr %2, align 4, !tbaa !3
  %4 = icmp sle i32 %3, 5
  br i1 %4, label %5, label %6

5:                                                ; preds = %1
  br label %10

6:                                                ; preds = %1
  %7 = load i32, ptr %2, align 4, !tbaa !3
  %8 = sub nsw i32 %7, 5
  %9 = shl i32 1, %8
  br label %10

10:                                               ; preds = %6, %5
  %11 = phi i32 [ 1, %5 ], [ %9, %6 ]
  ret i32 %11
}

; Function Attrs: inlinehint nounwind uwtable
define internal i32 @Abc_Var2Lit(i32 noundef %0, i32 noundef %1) #4 {
  %3 = alloca i32, align 4
  %4 = alloca i32, align 4
  store i32 %0, ptr %3, align 4, !tbaa !3
  store i32 %1, ptr %4, align 4, !tbaa !3
  %5 = load i32, ptr %3, align 4, !tbaa !3
  %6 = load i32, ptr %3, align 4, !tbaa !3
  %7 = add nsw i32 %5, %6
  %8 = load i32, ptr %4, align 4, !tbaa !3
  %9 = add nsw i32 %7, %8
  ret i32 %9
}

; Function Attrs: inlinehint nounwind uwtable
define internal i32 @Abc_LitIsCompl(i32 noundef %0) #4 {
  %2 = alloca i32, align 4
  store i32 %0, ptr %2, align 4, !tbaa !3
  %3 = load i32, ptr %2, align 4, !tbaa !3
  %4 = and i32 %3, 1
  ret i32 %4
}

; Function Attrs: nounwind uwtable
define ptr @Kit_DsdObjAlloc(ptr noundef %0, i32 noundef %1, i32 noundef %2) #0 {
  %4 = alloca ptr, align 8
  %5 = alloca i32, align 4
  %6 = alloca i32, align 4
  %7 = alloca ptr, align 8
  %8 = alloca i32, align 4
  store ptr %0, ptr %4, align 8, !tbaa !37
  store i32 %1, ptr %5, align 4, !tbaa !3
  store i32 %2, ptr %6, align 4, !tbaa !3
  call void @llvm.lifetime.start.p0(i64 8, ptr %7) #9
  call void @llvm.lifetime.start.p0(i64 4, ptr %8) #9
  %9 = load i32, ptr %6, align 4, !tbaa !3
  %10 = call i32 @Kit_DsdObjOffset(i32 noundef %9)
  %11 = load i32, ptr %5, align 4, !tbaa !3
  %12 = icmp eq i32 %11, 5
  %13 = zext i1 %12 to i32
  %14 = load i32, ptr %6, align 4, !tbaa !3
  %15 = call i32 @Kit_TruthWordNum(i32 noundef %14)
  %16 = mul nsw i32 %13, %15
  %17 = add i32 %10, %16
  %18 = zext i32 %17 to i64
  %19 = mul i64 4, %18
  %20 = add i64 4, %19
  %21 = trunc i64 %20 to i32
  store i32 %21, ptr %8, align 4, !tbaa !3
  %22 = load i32, ptr %8, align 4, !tbaa !3
  %23 = sext i32 %22 to i64
  %24 = mul i64 1, %23
  %25 = call noalias ptr @malloc(i64 noundef %24) #10
  store ptr %25, ptr %7, align 8, !tbaa !39
  %26 = load ptr, ptr %7, align 8, !tbaa !39
  %27 = load i32, ptr %8, align 4, !tbaa !3
  %28 = sext i32 %27 to i64
  call void @llvm.memset.p0.i64(ptr align 4 %26, i8 0, i64 %28, i1 false)
  %29 = load ptr, ptr %4, align 8, !tbaa !37
  %30 = getelementptr inbounds nuw %struct.Kit_DsdNtk_t_, ptr %29, i32 0, i32 0
  %31 = load i16, ptr %30, align 8, !tbaa !41
  %32 = zext i16 %31 to i32
  %33 = load ptr, ptr %4, align 8, !tbaa !37
  %34 = getelementptr inbounds nuw %struct.Kit_DsdNtk_t_, ptr %33, i32 0, i32 2
  %35 = load i16, ptr %34, align 4, !tbaa !45
  %36 = zext i16 %35 to i32
  %37 = add nsw i32 %32, %36
  %38 = load ptr, ptr %7, align 8, !tbaa !39
  %39 = load i32, ptr %38, align 4
  %40 = and i32 %37, 63
  %41 = and i32 %39, -64
  %42 = or i32 %41, %40
  store i32 %42, ptr %38, align 4
  %43 = load i32, ptr %5, align 4, !tbaa !3
  %44 = load ptr, ptr %7, align 8, !tbaa !39
  %45 = load i32, ptr %44, align 4
  %46 = and i32 %43, 7
  %47 = shl i32 %46, 6
  %48 = and i32 %45, -449
  %49 = or i32 %48, %47
  store i32 %49, ptr %44, align 4
  %50 = load i32, ptr %6, align 4, !tbaa !3
  %51 = load ptr, ptr %7, align 8, !tbaa !39
  %52 = load i32, ptr %51, align 4
  %53 = and i32 %50, 63
  %54 = shl i32 %53, 26
  %55 = and i32 %52, 67108863
  %56 = or i32 %55, %54
  store i32 %56, ptr %51, align 4
  %57 = load i32, ptr %6, align 4, !tbaa !3
  %58 = call i32 @Kit_DsdObjOffset(i32 noundef %57)
  %59 = load ptr, ptr %7, align 8, !tbaa !39
  %60 = load i32, ptr %59, align 4
  %61 = and i32 %58, 255
  %62 = shl i32 %61, 10
  %63 = and i32 %60, -261121
  %64 = or i32 %63, %62
  store i32 %64, ptr %59, align 4
  %65 = load ptr, ptr %4, align 8, !tbaa !37
  %66 = getelementptr inbounds nuw %struct.Kit_DsdNtk_t_, ptr %65, i32 0, i32 2
  %67 = load i16, ptr %66, align 4, !tbaa !45
  %68 = zext i16 %67 to i32
  %69 = load ptr, ptr %4, align 8, !tbaa !37
  %70 = getelementptr inbounds nuw %struct.Kit_DsdNtk_t_, ptr %69, i32 0, i32 1
  %71 = load i16, ptr %70, align 2, !tbaa !46
  %72 = zext i16 %71 to i32
  %73 = icmp eq i32 %68, %72
  br i1 %73, label %74, label %106

74:                                               ; preds = %3
  %75 = load ptr, ptr %4, align 8, !tbaa !37
  %76 = getelementptr inbounds nuw %struct.Kit_DsdNtk_t_, ptr %75, i32 0, i32 1
  %77 = load i16, ptr %76, align 2, !tbaa !46
  %78 = zext i16 %77 to i32
  %79 = mul nsw i32 %78, 2
  %80 = trunc i32 %79 to i16
  store i16 %80, ptr %76, align 2, !tbaa !46
  %81 = load ptr, ptr %4, align 8, !tbaa !37
  %82 = getelementptr inbounds nuw %struct.Kit_DsdNtk_t_, ptr %81, i32 0, i32 6
  %83 = load ptr, ptr %82, align 8, !tbaa !47
  %84 = icmp ne ptr %83, null
  br i1 %84, label %85, label %95

85:                                               ; preds = %74
  %86 = load ptr, ptr %4, align 8, !tbaa !37
  %87 = getelementptr inbounds nuw %struct.Kit_DsdNtk_t_, ptr %86, i32 0, i32 6
  %88 = load ptr, ptr %87, align 8, !tbaa !47
  %89 = load ptr, ptr %4, align 8, !tbaa !37
  %90 = getelementptr inbounds nuw %struct.Kit_DsdNtk_t_, ptr %89, i32 0, i32 1
  %91 = load i16, ptr %90, align 2, !tbaa !46
  %92 = zext i16 %91 to i64
  %93 = mul i64 8, %92
  %94 = call ptr @realloc(ptr noundef %88, i64 noundef %93) #11
  br label %102

95:                                               ; preds = %74
  %96 = load ptr, ptr %4, align 8, !tbaa !37
  %97 = getelementptr inbounds nuw %struct.Kit_DsdNtk_t_, ptr %96, i32 0, i32 1
  %98 = load i16, ptr %97, align 2, !tbaa !46
  %99 = zext i16 %98 to i64
  %100 = mul i64 8, %99
  %101 = call noalias ptr @malloc(i64 noundef %100) #10
  br label %102

102:                                              ; preds = %95, %85
  %103 = phi ptr [ %94, %85 ], [ %101, %95 ]
  %104 = load ptr, ptr %4, align 8, !tbaa !37
  %105 = getelementptr inbounds nuw %struct.Kit_DsdNtk_t_, ptr %104, i32 0, i32 6
  store ptr %103, ptr %105, align 8, !tbaa !47
  br label %106

106:                                              ; preds = %102, %3
  %107 = load ptr, ptr %7, align 8, !tbaa !39
  %108 = load ptr, ptr %4, align 8, !tbaa !37
  %109 = getelementptr inbounds nuw %struct.Kit_DsdNtk_t_, ptr %108, i32 0, i32 6
  %110 = load ptr, ptr %109, align 8, !tbaa !47
  %111 = load ptr, ptr %4, align 8, !tbaa !37
  %112 = getelementptr inbounds nuw %struct.Kit_DsdNtk_t_, ptr %111, i32 0, i32 2
  %113 = load i16, ptr %112, align 4, !tbaa !45
  %114 = add i16 %113, 1
  store i16 %114, ptr %112, align 4, !tbaa !45
  %115 = zext i16 %113 to i64
  %116 = getelementptr inbounds nuw ptr, ptr %110, i64 %115
  store ptr %107, ptr %116, align 8, !tbaa !39
  %117 = load ptr, ptr %7, align 8, !tbaa !39
  call void @llvm.lifetime.end.p0(i64 4, ptr %8) #9
  call void @llvm.lifetime.end.p0(i64 8, ptr %7) #9
  ret ptr %117
}

; Function Attrs: inlinehint nounwind uwtable
define internal ptr @Kit_DsdNtkRoot(ptr noundef %0) #4 {
  %2 = alloca ptr, align 8
  store ptr %0, ptr %2, align 8, !tbaa !37
  %3 = load ptr, ptr %2, align 8, !tbaa !37
  %4 = load ptr, ptr %2, align 8, !tbaa !37
  %5 = getelementptr inbounds nuw %struct.Kit_DsdNtk_t_, ptr %4, i32 0, i32 3
  %6 = load i16, ptr %5, align 2, !tbaa !60
  %7 = zext i16 %6 to i32
  %8 = call i32 @Abc_Lit2Var(i32 noundef %7)
  %9 = call ptr @Kit_DsdNtkObj(ptr noundef %3, i32 noundef %8)
  ret ptr %9
}

; Function Attrs: nounwind uwtable
define ptr @Kit_DsdNtkAlloc(i32 noundef %0) #0 {
  %2 = alloca i32, align 4
  %3 = alloca ptr, align 8
  store i32 %0, ptr %2, align 4, !tbaa !3
  call void @llvm.lifetime.start.p0(i64 8, ptr %3) #9
  %4 = call noalias ptr @malloc(i64 noundef 32) #10
  store ptr %4, ptr %3, align 8, !tbaa !37
  %5 = load ptr, ptr %3, align 8, !tbaa !37
  call void @llvm.memset.p0.i64(ptr align 8 %5, i8 0, i64 32, i1 false)
  %6 = load i32, ptr %2, align 4, !tbaa !3
  %7 = add nsw i32 %6, 1
  %8 = sext i32 %7 to i64
  %9 = mul i64 8, %8
  %10 = call noalias ptr @malloc(i64 noundef %9) #10
  %11 = load ptr, ptr %3, align 8, !tbaa !37
  %12 = getelementptr inbounds nuw %struct.Kit_DsdNtk_t_, ptr %11, i32 0, i32 6
  store ptr %10, ptr %12, align 8, !tbaa !47
  %13 = load i32, ptr %2, align 4, !tbaa !3
  %14 = trunc i32 %13 to i16
  %15 = load ptr, ptr %3, align 8, !tbaa !37
  %16 = getelementptr inbounds nuw %struct.Kit_DsdNtk_t_, ptr %15, i32 0, i32 0
  store i16 %14, ptr %16, align 8, !tbaa !41
  %17 = load i32, ptr %2, align 4, !tbaa !3
  %18 = add nsw i32 %17, 1
  %19 = trunc i32 %18 to i16
  %20 = load ptr, ptr %3, align 8, !tbaa !37
  %21 = getelementptr inbounds nuw %struct.Kit_DsdNtk_t_, ptr %20, i32 0, i32 1
  store i16 %19, ptr %21, align 2, !tbaa !46
  %22 = load i32, ptr %2, align 4, !tbaa !3
  %23 = call i32 @Kit_TruthWordNum(i32 noundef %22)
  %24 = mul nsw i32 6, %23
  %25 = sext i32 %24 to i64
  %26 = mul i64 4, %25
  %27 = call noalias ptr @malloc(i64 noundef %26) #10
  %28 = load ptr, ptr %3, align 8, !tbaa !37
  %29 = getelementptr inbounds nuw %struct.Kit_DsdNtk_t_, ptr %28, i32 0, i32 4
  store ptr %27, ptr %29, align 8, !tbaa !48
  %30 = load ptr, ptr %3, align 8, !tbaa !37
  call void @llvm.lifetime.end.p0(i64 8, ptr %3) #9
  ret ptr %30
}

; Function Attrs: nounwind uwtable
define ptr @Kit_DsdExpand(ptr noundef %0) #0 {
  %2 = alloca ptr, align 8
  %3 = alloca ptr, align 8
  %4 = alloca ptr, align 8
  %5 = alloca ptr, align 8
  %6 = alloca i32, align 4
  store ptr %0, ptr %3, align 8, !tbaa !37
  call void @llvm.lifetime.start.p0(i64 8, ptr %4) #9
  call void @llvm.lifetime.start.p0(i64 8, ptr %5) #9
  %7 = load ptr, ptr %3, align 8, !tbaa !37
  %8 = getelementptr inbounds nuw %struct.Kit_DsdNtk_t_, ptr %7, i32 0, i32 0
  %9 = load i16, ptr %8, align 8, !tbaa !41
  %10 = zext i16 %9 to i32
  %11 = call ptr @Kit_DsdNtkAlloc(i32 noundef %10)
  store ptr %11, ptr %4, align 8, !tbaa !37
  %12 = load ptr, ptr %3, align 8, !tbaa !37
  %13 = call ptr @Kit_DsdNtkRoot(ptr noundef %12)
  %14 = load i32, ptr %13, align 4
  %15 = lshr i32 %14, 6
  %16 = and i32 %15, 7
  %17 = icmp eq i32 %16, 1
  br i1 %17, label %18, label %34

18:                                               ; preds = %1
  %19 = load ptr, ptr %4, align 8, !tbaa !37
  %20 = call ptr @Kit_DsdObjAlloc(ptr noundef %19, i32 noundef 1, i32 noundef 0)
  store ptr %20, ptr %5, align 8, !tbaa !39
  %21 = load ptr, ptr %5, align 8, !tbaa !39
  %22 = load i32, ptr %21, align 4
  %23 = and i32 %22, 63
  %24 = load ptr, ptr %3, align 8, !tbaa !37
  %25 = getelementptr inbounds nuw %struct.Kit_DsdNtk_t_, ptr %24, i32 0, i32 3
  %26 = load i16, ptr %25, align 2, !tbaa !60
  %27 = zext i16 %26 to i32
  %28 = call i32 @Abc_LitIsCompl(i32 noundef %27)
  %29 = call i32 @Abc_Var2Lit(i32 noundef %23, i32 noundef %28)
  %30 = trunc i32 %29 to i16
  %31 = load ptr, ptr %4, align 8, !tbaa !37
  %32 = getelementptr inbounds nuw %struct.Kit_DsdNtk_t_, ptr %31, i32 0, i32 3
  store i16 %30, ptr %32, align 2, !tbaa !60
  %33 = load ptr, ptr %4, align 8, !tbaa !37
  store ptr %33, ptr %2, align 8
  store i32 1, ptr %6, align 4
  br label %77

34:                                               ; preds = %1
  %35 = load ptr, ptr %3, align 8, !tbaa !37
  %36 = call ptr @Kit_DsdNtkRoot(ptr noundef %35)
  %37 = load i32, ptr %36, align 4
  %38 = lshr i32 %37, 6
  %39 = and i32 %38, 7
  %40 = icmp eq i32 %39, 2
  br i1 %40, label %41, label %65

41:                                               ; preds = %34
  %42 = load ptr, ptr %4, align 8, !tbaa !37
  %43 = call ptr @Kit_DsdObjAlloc(ptr noundef %42, i32 noundef 2, i32 noundef 1)
  store ptr %43, ptr %5, align 8, !tbaa !39
  %44 = load ptr, ptr %3, align 8, !tbaa !37
  %45 = call ptr @Kit_DsdNtkRoot(ptr noundef %44)
  %46 = getelementptr inbounds nuw %struct.Kit_DsdObj_t_, ptr %45, i32 0, i32 1
  %47 = getelementptr inbounds [0 x i16], ptr %46, i64 0, i64 0
  %48 = load i16, ptr %47, align 4, !tbaa !58
  %49 = load ptr, ptr %5, align 8, !tbaa !39
  %50 = getelementptr inbounds nuw %struct.Kit_DsdObj_t_, ptr %49, i32 0, i32 1
  %51 = getelementptr inbounds [0 x i16], ptr %50, i64 0, i64 0
  store i16 %48, ptr %51, align 4, !tbaa !58
  %52 = load ptr, ptr %5, align 8, !tbaa !39
  %53 = load i32, ptr %52, align 4
  %54 = and i32 %53, 63
  %55 = load ptr, ptr %3, align 8, !tbaa !37
  %56 = getelementptr inbounds nuw %struct.Kit_DsdNtk_t_, ptr %55, i32 0, i32 3
  %57 = load i16, ptr %56, align 2, !tbaa !60
  %58 = zext i16 %57 to i32
  %59 = call i32 @Abc_LitIsCompl(i32 noundef %58)
  %60 = call i32 @Abc_Var2Lit(i32 noundef %54, i32 noundef %59)
  %61 = trunc i32 %60 to i16
  %62 = load ptr, ptr %4, align 8, !tbaa !37
  %63 = getelementptr inbounds nuw %struct.Kit_DsdNtk_t_, ptr %62, i32 0, i32 3
  store i16 %61, ptr %63, align 2, !tbaa !60
  %64 = load ptr, ptr %4, align 8, !tbaa !37
  store ptr %64, ptr %2, align 8
  store i32 1, ptr %6, align 4
  br label %77

65:                                               ; preds = %34
  %66 = load ptr, ptr %4, align 8, !tbaa !37
  %67 = load ptr, ptr %3, align 8, !tbaa !37
  %68 = load ptr, ptr %3, align 8, !tbaa !37
  %69 = getelementptr inbounds nuw %struct.Kit_DsdNtk_t_, ptr %68, i32 0, i32 3
  %70 = load i16, ptr %69, align 2, !tbaa !60
  %71 = zext i16 %70 to i32
  %72 = call i32 @Kit_DsdExpandNode_rec(ptr noundef %66, ptr noundef %67, i32 noundef %71)
  %73 = trunc i32 %72 to i16
  %74 = load ptr, ptr %4, align 8, !tbaa !37
  %75 = getelementptr inbounds nuw %struct.Kit_DsdNtk_t_, ptr %74, i32 0, i32 3
  store i16 %73, ptr %75, align 2, !tbaa !60
  %76 = load ptr, ptr %4, align 8, !tbaa !37
  store ptr %76, ptr %2, align 8
  store i32 1, ptr %6, align 4
  br label %77

77:                                               ; preds = %65, %41, %18
  call void @llvm.lifetime.end.p0(i64 8, ptr %5) #9
  call void @llvm.lifetime.end.p0(i64 8, ptr %4) #9
  %78 = load ptr, ptr %2, align 8
  ret ptr %78
}