; Function Attrs: nounwind uwtable
define noundef ptr @Kit_DsdExpand(ptr noundef %0) local_unnamed_addr #0 {
Kit_DsdNtkRoot.exit.thread:
  %1 = load i16, ptr %0, align 8, !tbaa !34
  %2 = zext i16 %1 to i32
  %calloc.i = tail call dereferenceable_or_null(32) ptr @calloc(i64 1, i64 32)
  %3 = add nuw nsw i32 %2, 1
  %4 = shl nuw nsw i32 %3, 3
  %5 = zext nneg i32 %4 to i64
  %6 = tail call noalias ptr @malloc(i64 noundef %5) #26
  %7 = getelementptr inbounds nuw i8, ptr %calloc.i, i64 24
  store ptr %6, ptr %7, align 8, !tbaa !40
  store i16 %1, ptr %calloc.i, align 8, !tbaa !34
  %8 = trunc i32 %3 to i16
  %9 = getelementptr inbounds nuw i8, ptr %calloc.i, i64 2
  store i16 %8, ptr %9, align 2, !tbaa !39
  %10 = icmp ult i16 %1, 6
  %11 = add nsw i32 %2, -5
  %12 = shl i32 6, %11
  %13 = sext i32 %12 to i64
  %14 = shl nsw i64 %13, 2
  %15 = select i1 %10, i64 24, i64 %14
  %16 = tail call noalias ptr @malloc(i64 noundef %15) #26
  %17 = getelementptr inbounds nuw i8, ptr %calloc.i, i64 8
  store ptr %16, ptr %17, align 8, !tbaa !43
  %18 = getelementptr inbounds nuw i8, ptr %0, i64 6
  %19 = load i16, ptr %18, align 2, !tbaa !51
  %20 = lshr i16 %19, 1
  %21 = icmp uge i16 %20, %1
  tail call void @llvm.assume(i1 %21)
  %22 = getelementptr inbounds nuw i8, ptr %0, i64 24
  %23 = load ptr, ptr %22, align 8, !tbaa !40
  %narrow.i = sub nuw nsw i16 %20, %1
  %24 = zext nneg i16 %narrow.i to i64
  %25 = getelementptr inbounds nuw ptr, ptr %23, i64 %24
  %26 = load ptr, ptr %25, align 8, !tbaa !41
  %27 = load i32, ptr %26, align 4
  %28 = and i32 %27, 448
  switch i32 %28, label %67 [
    i32 64, label %29
    i32 128, label %45
  ]

29:                                               ; preds = %Kit_DsdNtkRoot.exit.thread
  %calloc.i21 = tail call dereferenceable_or_null(4) ptr @calloc(i64 1, i64 4)
  %30 = getelementptr inbounds nuw i8, ptr %calloc.i, i64 4
  %31 = and i32 %2, 63
  %32 = or disjoint i32 %31, 64
  store i32 %32, ptr %calloc.i21, align 4
  %33 = icmp eq i16 %8, 0
  br i1 %33, label %34, label %Kit_DsdObjAlloc.exit

34:                                               ; preds = %29
  store i16 0, ptr %9, align 2, !tbaa !39
  %.not.i = icmp eq ptr %6, null
  br i1 %.not.i, label %37, label %35

35:                                               ; preds = %34
  %36 = tail call ptr @realloc(ptr noundef nonnull %6, i64 noundef 0) #28
  br label %39

37:                                               ; preds = %34
  %38 = tail call noalias ptr @malloc(i64 noundef 0) #26
  br label %39

39:                                               ; preds = %37, %35
  %40 = phi ptr [ %36, %35 ], [ %38, %37 ]
  store ptr %40, ptr %7, align 8, !tbaa !40
  br label %Kit_DsdObjAlloc.exit

Kit_DsdObjAlloc.exit:                             ; preds = %29, %39
  %41 = phi ptr [ %40, %39 ], [ %6, %29 ]
  store i16 1, ptr %30, align 4, !tbaa !38
  store ptr %calloc.i21, ptr %41, align 8, !tbaa !41
  %42 = and i16 %19, 1
  %.tr34 = trunc nuw nsw i32 %31 to i16
  %43 = shl nuw nsw i16 %.tr34, 1
  %44 = or disjoint i16 %43, %42
  br label %71

45:                                               ; preds = %Kit_DsdNtkRoot.exit.thread
  %calloc.i24 = tail call dereferenceable_or_null(8) ptr @calloc(i64 1, i64 8)
  %46 = getelementptr inbounds nuw i8, ptr %calloc.i, i64 4
  %47 = and i32 %2, 63
  %48 = or disjoint i32 %47, 67110016
  store i32 %48, ptr %calloc.i24, align 4
  %49 = icmp eq i16 %8, 0
  br i1 %49, label %50, label %Kit_DsdObjAlloc.exit31

50:                                               ; preds = %45
  store i16 0, ptr %9, align 2, !tbaa !39
  %.not.i28 = icmp eq ptr %6, null
  br i1 %.not.i28, label %53, label %51

51:                                               ; preds = %50
  %52 = tail call ptr @realloc(ptr noundef nonnull %6, i64 noundef 0) #28
  br label %55

53:                                               ; preds = %50
  %54 = tail call noalias ptr @malloc(i64 noundef 0) #26
  br label %55

55:                                               ; preds = %53, %51
  %56 = phi ptr [ %52, %51 ], [ %54, %53 ]
  store ptr %56, ptr %7, align 8, !tbaa !40
  br label %Kit_DsdObjAlloc.exit31

Kit_DsdObjAlloc.exit31:                           ; preds = %45, %55
  %57 = phi ptr [ %56, %55 ], [ %6, %45 ]
  store i16 1, ptr %46, align 4, !tbaa !38
  store ptr %calloc.i24, ptr %57, align 8, !tbaa !41
  %58 = load ptr, ptr %25, align 8, !tbaa !41
  %59 = getelementptr inbounds nuw i8, ptr %58, i64 4
  %60 = load i16, ptr %59, align 4, !tbaa !49
  %61 = getelementptr inbounds nuw i8, ptr %calloc.i24, i64 4
  store i16 %60, ptr %61, align 4, !tbaa !49
  %62 = load i32, ptr %calloc.i24, align 4
  %63 = and i16 %19, 1
  %.tr = trunc i32 %62 to i16
  %64 = shl i16 %.tr, 1
  %65 = and i16 %64, 126
  %66 = or disjoint i16 %65, %63
  br label %71

67:                                               ; preds = %Kit_DsdNtkRoot.exit.thread
  %68 = zext i16 %19 to i32
  %69 = tail call i32 @Kit_DsdExpandNode_rec(ptr noundef nonnull %calloc.i, ptr noundef nonnull %0, i32 noundef %68)
  %70 = trunc i32 %69 to i16
  br label %71

71:                                               ; preds = %67, %Kit_DsdObjAlloc.exit31, %Kit_DsdObjAlloc.exit
  %.sink = phi i16 [ %70, %67 ], [ %66, %Kit_DsdObjAlloc.exit31 ], [ %44, %Kit_DsdObjAlloc.exit ]
  %72 = getelementptr inbounds nuw i8, ptr %calloc.i, i64 6
  store i16 %.sink, ptr %72, align 2, !tbaa !51
  ret ptr %calloc.i
}